; Function Attrs: nounwind uwtable
define range(i32 -50, 1) i32 @CVodeGetQuadSens(ptr noundef captures(address_is_null) %0, ptr noundef writeonly captures(none) %1, ptr noundef readonly captures(address_is_null) %2) local_unnamed_addr #0 {
  %4 = icmp eq ptr %0, null
  br i1 %4, label %5, label %6

5:                                                ; preds = %3
  tail call void (ptr, i32, i32, ptr, ptr, ptr, ...) @cvProcessError(ptr noundef null, i32 noundef -21, i32 noundef 4171, ptr noundef nonnull @__func__.CVodeGetQuadSens, ptr noundef nonnull @.str, ptr noundef nonnull @.str.4)
  br label %CVodeGetQuadSensDky.exit

6:                                                ; preds = %3
  %7 = getelementptr inbounds nuw i8, ptr %0, i64 1040
  %8 = load double, ptr %7, align 8, !tbaa !220
  store double %8, ptr %1, align 8, !tbaa !69
  %9 = icmp eq ptr %2, null
  br i1 %9, label %13, label %.preheader.i

.preheader.i:                                     ; preds = %6
  %10 = getelementptr inbounds nuw i8, ptr %0, i64 144
  %11 = load i32, ptr %10, align 8, !tbaa !156
  %12 = icmp sgt i32 %11, 0
  br i1 %12, label %.lr.ph.i, label %CVodeGetQuadSensDky.exit

13:                                               ; preds = %6
  tail call void (ptr, i32, i32, ptr, ptr, ptr, ...) @cvProcessError(ptr noundef nonnull %0, i32 noundef -26, i32 noundef 4232, ptr noundef nonnull @__func__.CVodeGetQuadSensDky, ptr noundef nonnull @.str, ptr noundef nonnull @.str.63)
  br label %CVodeGetQuadSensDky.exit

14:                                               ; preds = %.lr.ph.i
  %indvars.iv.next.i = add nuw nsw i64 %indvars.iv.i, 1
  %15 = load i32, ptr %10, align 8, !tbaa !156
  %16 = sext i32 %15 to i64
  %17 = icmp slt i64 %indvars.iv.next.i, %16
  br i1 %17, label %.lr.ph.i, label %CVodeGetQuadSensDky.exit

.lr.ph.i:                                         ; preds = %.preheader.i, %14
  %indvars.iv.i = phi i64 [ %indvars.iv.next.i, %14 ], [ 0, %.preheader.i ]
  %18 = getelementptr inbounds nuw ptr, ptr %2, i64 %indvars.iv.i
  %19 = load ptr, ptr %18, align 8, !tbaa !65
  %20 = trunc nuw nsw i64 %indvars.iv.i to i32
  %21 = tail call i32 @CVodeGetQuadSensDky1(ptr noundef nonnull %0, double noundef %8, i32 noundef 0, i32 noundef %20, ptr noundef %19)
  %.not.i = icmp eq i32 %21, 0
  br i1 %.not.i, label %14, label %CVodeGetQuadSensDky.exit

CVodeGetQuadSensDky.exit:                         ; preds = %.lr.ph.i, %14, %13, %.preheader.i, %5
  %.0 = phi i32 [ -21, %5 ], [ -26, %13 ], [ 0, %.preheader.i ], [ 0, %14 ], [ %21, %.lr.ph.i ]
  ret i32 %.0
}